; Function Attrs: nounwind uwtable
define internal ptr @serialize(ptr noundef readonly captures(none) %0, ptr noundef %1, i64 noundef %2, ptr noundef %3) #0 {
  %5 = alloca i64, align 8
  %6 = alloca [1 x ptr], align 8
  %7 = alloca i64, align 8
  call void @llvm.lifetime.start.p0(i64 8, ptr nonnull %6) #7
  %.not = icmp eq ptr %3, null
  br i1 %.not, label %9, label %.thread

.thread:                                          ; preds = %4
  %8 = getelementptr i8, ptr %3, i64 16
  %.val34 = load i64, ptr %8, align 8, !tbaa !35
  br label %12

9:                                                ; preds = %4
  %10 = icmp eq i64 %2, 0
  %11 = icmp ne ptr %1, null
  %or.cond5 = and i1 %11, %10
  br i1 %or.cond5, label %.thread38, label %12

12:                                               ; preds = %9, %.thread
  %13 = phi i64 [ %.val34, %.thread ], [ 0, %9 ]
  %14 = call ptr @_PyArg_UnpackKeywords(ptr noundef %1, i64 noundef %2, ptr noundef null, ptr noundef %3, ptr noundef nonnull @serialize._parser, i32 noundef 0, i32 noundef 0, i32 noundef 0, i32 noundef 0, ptr noundef nonnull %6) #7
  %.not30 = icmp eq ptr %14, null
  br i1 %.not30, label %serialize_impl.exit, label %.thread38

.thread38:                                        ; preds = %9, %12
  %15 = phi ptr [ %14, %12 ], [ %1, %9 ]
  %16 = phi i64 [ %13, %12 ], [ 0, %9 ]
  %17 = sub i64 0, %16
  %.not31 = icmp eq i64 %2, %17
  br i1 %.not31, label %32, label %18

18:                                               ; preds = %.thread38
  %19 = load ptr, ptr %15, align 8, !tbaa !25
  %20 = getelementptr i8, ptr %19, i64 8
  %.val = load ptr, ptr %20, align 8, !tbaa !16
  %21 = getelementptr i8, ptr %.val, i64 168
  %.val35 = load i64, ptr %21, align 8, !tbaa !43
  %22 = and i64 %.val35, 268435456
  %.not32 = icmp eq i64 %22, 0
  br i1 %.not32, label %23, label %24

23:                                               ; preds = %18
  call void @_PyArg_BadArgument(ptr noundef nonnull @.str.30, ptr noundef nonnull @.str.44, ptr noundef nonnull @.str.45, ptr noundef nonnull %19) #7
  br label %serialize_impl.exit

24:                                               ; preds = %18
  %25 = call ptr @PyUnicode_AsUTF8AndSize(ptr noundef nonnull %19, ptr noundef nonnull %7) #7
  %26 = icmp eq ptr %25, null
  br i1 %26, label %serialize_impl.exit, label %27

27:                                               ; preds = %24
  %28 = call i64 @strlen(ptr noundef nonnull dereferenceable(1) %25) #8
  %29 = load i64, ptr %7, align 8, !tbaa !86
  %.not33 = icmp eq i64 %28, %29
  br i1 %.not33, label %32, label %30

30:                                               ; preds = %27
  %31 = load ptr, ptr @PyExc_ValueError, align 8, !tbaa !25
  call void @PyErr_SetString(ptr noundef %31, ptr noundef nonnull @.str.46) #7
  br label %serialize_impl.exit

32:                                               ; preds = %27, %.thread38
  %.0 = phi ptr [ %25, %27 ], [ @.str.42, %.thread38 ]
  %33 = getelementptr inbounds nuw i8, ptr %0, i64 52
  %34 = load i32, ptr %33, align 4, !tbaa !21
  %.not.i.i = icmp eq i32 %34, 0
  br i1 %.not.i.i, label %43, label %35

35:                                               ; preds = %32
  %36 = call i64 @PyThread_get_thread_ident() #7
  %37 = getelementptr inbounds nuw i8, ptr %0, i64 64
  %38 = load i64, ptr %37, align 8, !tbaa !22
  %.not5.i.i = icmp eq i64 %36, %38
  br i1 %.not5.i.i, label %43, label %pysqlite_check_thread.exit.i

pysqlite_check_thread.exit.i:                     ; preds = %35
  %39 = getelementptr inbounds nuw i8, ptr %0, i64 208
  %40 = load ptr, ptr %39, align 8, !tbaa !23
  %41 = call i64 @PyThread_get_thread_ident() #7
  %42 = call ptr (ptr, ptr, ...) @PyErr_Format(ptr noundef %40, ptr noundef nonnull @.str.2, i64 noundef %38, i64 noundef %41) #7
  br label %serialize_impl.exit

43:                                               ; preds = %35, %32
  %44 = getelementptr inbounds nuw i8, ptr %0, i64 56
  %45 = load i32, ptr %44, align 8, !tbaa !3
  %.not.i23.i = icmp eq i32 %45, 0
  br i1 %.not.i23.i, label %46, label %50

46:                                               ; preds = %43
  %47 = getelementptr i8, ptr %0, i64 8
  %.val.i.i = load ptr, ptr %47, align 8, !tbaa !16
  %48 = call ptr @PyType_GetModuleByDef(ptr noundef %.val.i.i, ptr noundef nonnull @_sqlite3module) #7
  %49 = call ptr @PyModule_GetState(ptr noundef %48) #7
  br label %pysqlite_check_connection.exit.thread.i

50:                                               ; preds = %43
  %51 = getelementptr inbounds nuw i8, ptr %0, i64 16
  %52 = load ptr, ptr %51, align 8, !tbaa !17
  %.not5.i24.i = icmp eq ptr %52, null
  br i1 %.not5.i24.i, label %53, label %pysqlite_check_connection.exit.i

53:                                               ; preds = %50
  %54 = getelementptr inbounds nuw i8, ptr %0, i64 24
  %55 = load ptr, ptr %54, align 8, !tbaa !18
  br label %pysqlite_check_connection.exit.thread.i

pysqlite_check_connection.exit.thread.i:          ; preds = %53, %46
  %.sink.i.i = phi ptr [ %55, %53 ], [ %49, %46 ]
  %.str.1.sink.i.i = phi ptr [ @.str.1, %53 ], [ @.str, %46 ]
  %56 = getelementptr inbounds nuw i8, ptr %.sink.i.i, i64 64
  %57 = load ptr, ptr %56, align 8, !tbaa !19
  call void @PyErr_SetString(ptr noundef %57, ptr noundef nonnull %.str.1.sink.i.i) #7
  br label %serialize_impl.exit

pysqlite_check_connection.exit.i:                 ; preds = %50
  call void @llvm.lifetime.start.p0(i64 8, ptr nonnull %5) #7
  %58 = call ptr @PyEval_SaveThread() #7
  %59 = load ptr, ptr %51, align 8, !tbaa !17
  %60 = call ptr @sqlite3_serialize(ptr noundef %59, ptr noundef nonnull %.0, ptr noundef nonnull %5, i32 noundef 1) #7
  %61 = icmp eq ptr %60, null
  br i1 %61, label %62, label %70

62:                                               ; preds = %pysqlite_check_connection.exit.i
  %63 = load ptr, ptr %51, align 8, !tbaa !17
  %64 = call ptr @sqlite3_serialize(ptr noundef %63, ptr noundef nonnull %.0, ptr noundef nonnull %5, i32 noundef 0) #7
  call void @PyEval_RestoreThread(ptr noundef %58) #7
  %65 = icmp eq ptr %64, null
  br i1 %65, label %66, label %73

66:                                               ; preds = %62
  %67 = getelementptr inbounds nuw i8, ptr %0, i64 184
  %68 = load ptr, ptr %67, align 8, !tbaa !69
  %69 = call ptr (ptr, ptr, ...) @PyErr_Format(ptr noundef %68, ptr noundef nonnull @.str.93, ptr noundef nonnull %.0) #7
  br label %76

70:                                               ; preds = %pysqlite_check_connection.exit.i
  call void @PyEval_RestoreThread(ptr noundef %58) #7
  %71 = load i64, ptr %5, align 8, !tbaa !89
  %72 = call ptr @PyBytes_FromStringAndSize(ptr noundef nonnull %60, i64 noundef %71) #7
  br label %76

73:                                               ; preds = %62
  %74 = load i64, ptr %5, align 8, !tbaa !89
  %75 = call ptr @PyBytes_FromStringAndSize(ptr noundef nonnull %64, i64 noundef %74) #7
  call void @sqlite3_free(ptr noundef nonnull %64) #7
  br label %76

76:                                               ; preds = %73, %70, %66
  %.1.i = phi ptr [ null, %66 ], [ %75, %73 ], [ %72, %70 ]
  call void @llvm.lifetime.end.p0(i64 8, ptr nonnull %5) #7
  br label %serialize_impl.exit

serialize_impl.exit:                              ; preds = %76, %pysqlite_check_connection.exit.thread.i, %pysqlite_check_thread.exit.i, %24, %12, %30, %23
  %.025 = phi ptr [ null, %24 ], [ null, %30 ], [ null, %23 ], [ null, %12 ], [ %.1.i, %76 ], [ null, %pysqlite_check_thread.exit.i ], [ null, %pysqlite_check_connection.exit.thread.i ]
  call void @llvm.lifetime.end.p0(i64 8, ptr nonnull %6) #7
  ret ptr %.025
}